target datalayout = "e-m:e-p270:32:32-p271:32:32-p272:64:64-i64:64-i128:128-f80:128-n8:16:32:64-S128"
target triple = "x86_64-pc-linux-gnu"

%struct.poly_st = type { [256 x i32] }

; Function Attrs: inlinehint nounwind uwtable
define internal i32 @value_barrier_32(i32 noundef %0) #3 {
  %2 = alloca i32, align 4
  %3 = alloca i32, align 4
  store i32 %0, ptr %2, align 4, !tbaa !8
  call void @llvm.lifetime.start.p0(i64 4, ptr %3) #7
  %4 = load i32, ptr %2, align 4, !tbaa !8
  %5 = call i32 asm "", "=r,0,~{dirflag},~{fpsr},~{flags}"(i32 %4) #9, !srcloc !99
  store i32 %5, ptr %3, align 4, !tbaa !8
  %6 = load i32, ptr %3, align 4, !tbaa !8
  call void @llvm.lifetime.end.p0(i64 4, ptr %3) #7
  ret i32 %6
}

; Function Attrs: inlinehint nounwind uwtable
define internal i32 @constant_time_msb_32(i32 noundef %0) #3 {
  %2 = alloca i32, align 4
  store i32 %0, ptr %2, align 4, !tbaa !8
  %3 = load i32, ptr %2, align 4, !tbaa !8
  %4 = lshr i32 %3, 31
  %5 = sub i32 0, %4
  ret i32 %5
}

; Function Attrs: inlinehint nounwind uwtable
define internal i32 @constant_time_select_32(i32 noundef %0, i32 noundef %1, i32 noundef %2) #3 {
  %4 = alloca i32, align 4
  %5 = alloca i32, align 4
  %6 = alloca i32, align 4
  store i32 %0, ptr %4, align 4, !tbaa !8
  store i32 %1, ptr %5, align 4, !tbaa !8
  store i32 %2, ptr %6, align 4, !tbaa !8
  %7 = load i32, ptr %4, align 4, !tbaa !8
  %8 = call i32 @value_barrier_32(i32 noundef %7)
  %9 = load i32, ptr %5, align 4, !tbaa !8
  %10 = and i32 %8, %9
  %11 = load i32, ptr %4, align 4, !tbaa !8
  %12 = xor i32 %11, -1
  %13 = call i32 @value_barrier_32(i32 noundef %12)
  %14 = load i32, ptr %6, align 4, !tbaa !8
  %15 = and i32 %13, %14
  %16 = or i32 %10, %15
  ret i32 %16
}

; Function Attrs: inlinehint nounwind uwtable
define internal i32 @constant_time_lt_32(i32 noundef %0, i32 noundef %1) #3 {
  %3 = alloca i32, align 4
  %4 = alloca i32, align 4
  store i32 %0, ptr %3, align 4, !tbaa !8
  store i32 %1, ptr %4, align 4, !tbaa !8
  %5 = load i32, ptr %3, align 4, !tbaa !8
  %6 = load i32, ptr %3, align 4, !tbaa !8
  %7 = load i32, ptr %4, align 4, !tbaa !8
  %8 = xor i32 %6, %7
  %9 = load i32, ptr %3, align 4, !tbaa !8
  %10 = load i32, ptr %4, align 4, !tbaa !8
  %11 = sub i32 %9, %10
  %12 = load i32, ptr %4, align 4, !tbaa !8
  %13 = xor i32 %11, %12
  %14 = or i32 %8, %13
  %15 = xor i32 %5, %14
  %16 = call i32 @constant_time_msb_32(i32 noundef %15)
  ret i32 %16
}

; Function Attrs: inlinehint nounwind uwtable
define internal i32 @__uint32_identity(i32 noundef %0) #3 {
  %2 = alloca i32, align 4
  store i32 %0, ptr %2, align 4, !tbaa !8
  %3 = load i32, ptr %2, align 4, !tbaa !8
  ret i32 %3
}

; Function Attrs: inlinehint nounwind uwtable
define internal i32 @reduce_once(i32 noundef %0) #3 {
  %2 = alloca i32, align 4
  store i32 %0, ptr %2, align 4, !tbaa !8
  %3 = load i32, ptr %2, align 4, !tbaa !8
  %4 = call i32 @constant_time_lt_32(i32 noundef %3, i32 noundef 8380417)
  %5 = load i32, ptr %2, align 4, !tbaa !8
  %6 = load i32, ptr %2, align 4, !tbaa !8
  %7 = sub i32 %6, 8380417
  %8 = call i32 @constant_time_select_32(i32 noundef %4, i32 noundef %5, i32 noundef %7)
  ret i32 %8
}

; Function Attrs: inlinehint nounwind uwtable
define internal ptr @OPENSSL_store_u32_le(ptr noundef %0, i32 noundef %1) #3 {
  %3 = alloca ptr, align 8
  %4 = alloca i32, align 4
  %5 = alloca i32, align 4
  store ptr %0, ptr %3, align 8, !tbaa !25
  store i32 %1, ptr %4, align 4, !tbaa !8
  call void @llvm.lifetime.start.p0(i64 4, ptr %5) #7
  %6 = load i32, ptr %4, align 4, !tbaa !8
  %7 = call i32 @__uint32_identity(i32 noundef %6)
  store i32 %7, ptr %5, align 4, !tbaa !8
  %8 = load ptr, ptr %3, align 8, !tbaa !25
  call void @llvm.memcpy.p0.p0.i64(ptr align 1 %8, ptr align 4 %5, i64 4, i1 false)
  %9 = load ptr, ptr %3, align 8, !tbaa !25
  %10 = getelementptr inbounds i8, ptr %9, i64 4
  call void @llvm.lifetime.end.p0(i64 4, ptr %5) #7
  ret ptr %10
}

; Function Attrs: inlinehint nounwind uwtable
define internal i32 @mod_sub(i32 noundef %0, i32 noundef %1) #3 {
  %3 = alloca i32, align 4
  %4 = alloca i32, align 4
  store i32 %0, ptr %3, align 4, !tbaa !8
  store i32 %1, ptr %4, align 4, !tbaa !8
  %5 = load i32, ptr %3, align 4, !tbaa !8
  %6 = add i32 8380417, %5
  %7 = load i32, ptr %4, align 4, !tbaa !8
  %8 = sub i32 %6, %7
  %9 = call i32 @reduce_once(i32 noundef %8)
  ret i32 %9
}

; Function Attrs: nounwind uwtable
define internal i32 @poly_encode_signed_two_to_power_17(ptr noundef %0, ptr noundef %1) #0 {
  %3 = alloca i32, align 4
  %4 = alloca ptr, align 8
  %5 = alloca ptr, align 8
  %6 = alloca ptr, align 8
  %7 = alloca ptr, align 8
  %8 = alloca ptr, align 8
  %9 = alloca i32, align 4
  %10 = alloca i32, align 4
  %11 = alloca i32, align 4
  %12 = alloca i32, align 4
  store ptr %0, ptr %4, align 8, !tbaa !20
  store ptr %1, ptr %5, align 8, !tbaa !29
  call void @llvm.lifetime.start.p0(i64 8, ptr %6) #7
  %13 = load ptr, ptr %4, align 8, !tbaa !20
  %14 = getelementptr inbounds nuw %struct.poly_st, ptr %13, i32 0, i32 0
  %15 = getelementptr inbounds [256 x i32], ptr %14, i64 0, i64 0
  store ptr %15, ptr %6, align 8, !tbaa !31
  call void @llvm.lifetime.start.p0(i64 8, ptr %7) #7
  %16 = load ptr, ptr %6, align 8, !tbaa !31
  %17 = getelementptr inbounds i32, ptr %16, i64 256
  store ptr %17, ptr %7, align 8, !tbaa !31
  br label %18

18:                                               ; preds = %63, %2
  call void @llvm.lifetime.start.p0(i64 8, ptr %8) #7
  call void @llvm.lifetime.start.p0(i64 4, ptr %9) #7
  call void @llvm.lifetime.start.p0(i64 4, ptr %10) #7
  call void @llvm.lifetime.start.p0(i64 4, ptr %11) #7
  %19 = load ptr, ptr %5, align 8, !tbaa !29
  %20 = call i32 @WPACKET_allocate_bytes(ptr noundef %19, i64 noundef 9, ptr noundef %8)
  %21 = icmp ne i32 %20, 0
  br i1 %21, label %23, label %22

22:                                               ; preds = %18
  store i32 0, ptr %3, align 4
  store i32 1, ptr %12, align 4
  br label %60

23:                                               ; preds = %18
  %24 = load ptr, ptr %6, align 8, !tbaa !31
  %25 = getelementptr inbounds nuw i32, ptr %24, i32 1
  store ptr %25, ptr %6, align 8, !tbaa !31
  %26 = load i32, ptr %24, align 4, !tbaa !8
  %27 = call i32 @mod_sub(i32 noundef 131072, i32 noundef %26)
  store i32 %27, ptr %9, align 4, !tbaa !8
  %28 = load ptr, ptr %6, align 8, !tbaa !31
  %29 = getelementptr inbounds nuw i32, ptr %28, i32 1
  store ptr %29, ptr %6, align 8, !tbaa !31
  %30 = load i32, ptr %28, align 4, !tbaa !8
  %31 = call i32 @mod_sub(i32 noundef 131072, i32 noundef %30)
  store i32 %31, ptr %10, align 4, !tbaa !8
  %32 = shl i32 %31, 18
  %33 = load i32, ptr %9, align 4, !tbaa !8
  %34 = or i32 %33, %32
  store i32 %34, ptr %9, align 4, !tbaa !8
  %35 = load i32, ptr %10, align 4, !tbaa !8
  %36 = lshr i32 %35, 14
  %37 = load ptr, ptr %6, align 8, !tbaa !31
  %38 = getelementptr inbounds nuw i32, ptr %37, i32 1
  store ptr %38, ptr %6, align 8, !tbaa !31
  %39 = load i32, ptr %37, align 4, !tbaa !8
  %40 = call i32 @mod_sub(i32 noundef 131072, i32 noundef %39)
  %41 = shl i32 %40, 4
  %42 = or i32 %36, %41
  store i32 %42, ptr %10, align 4, !tbaa !8
  %43 = load ptr, ptr %6, align 8, !tbaa !31
  %44 = getelementptr inbounds nuw i32, ptr %43, i32 1
  store ptr %44, ptr %6, align 8, !tbaa !31
  %45 = load i32, ptr %43, align 4, !tbaa !8
  %46 = call i32 @mod_sub(i32 noundef 131072, i32 noundef %45)
  store i32 %46, ptr %11, align 4, !tbaa !8
  %47 = shl i32 %46, 22
  %48 = load i32, ptr %10, align 4, !tbaa !8
  %49 = or i32 %48, %47
  store i32 %49, ptr %10, align 4, !tbaa !8
  %50 = load ptr, ptr %8, align 8, !tbaa !25
  %51 = load i32, ptr %9, align 4, !tbaa !8
  %52 = call ptr @OPENSSL_store_u32_le(ptr noundef %50, i32 noundef %51)
  store ptr %52, ptr %8, align 8, !tbaa !25
  %53 = load ptr, ptr %8, align 8, !tbaa !25
  %54 = load i32, ptr %10, align 4, !tbaa !8
  %55 = call ptr @OPENSSL_store_u32_le(ptr noundef %53, i32 noundef %54)
  store ptr %55, ptr %8, align 8, !tbaa !25
  %56 = load i32, ptr %11, align 4, !tbaa !8
  %57 = lshr i32 %56, 10
  %58 = trunc i32 %57 to i8
  %59 = load ptr, ptr %8, align 8, !tbaa !25
  store i8 %58, ptr %59, align 1, !tbaa !33
  store i32 0, ptr %12, align 4
  br label %60

60:                                               ; preds = %23, %22
  call void @llvm.lifetime.end.p0(i64 4, ptr %11) #7
  call void @llvm.lifetime.end.p0(i64 4, ptr %10) #7
  call void @llvm.lifetime.end.p0(i64 4, ptr %9) #7
  call void @llvm.lifetime.end.p0(i64 8, ptr %8) #7
  %61 = load i32, ptr %12, align 4
  switch i32 %61, label %68 [
    i32 0, label %62
  ]

62:                                               ; preds = %60
  br label %63

63:                                               ; preds = %62
  %64 = load ptr, ptr %6, align 8, !tbaa !31
  %65 = load ptr, ptr %7, align 8, !tbaa !31
  %66 = icmp ult ptr %64, %65
  br i1 %66, label %18, label %67, !llvm.loop !79

67:                                               ; preds = %63
  store i32 1, ptr %3, align 4
  store i32 1, ptr %12, align 4
  br label %68

68:                                               ; preds = %67, %60
  call void @llvm.lifetime.end.p0(i64 8, ptr %7) #7
  call void @llvm.lifetime.end.p0(i64 8, ptr %6) #7
  %69 = load i32, ptr %3, align 4
  ret i32 %69
}