; Function Attrs: nounwind uwtable
define internal range(i32 0, 2) i32 @poly_encode_signed_two_to_power_17(ptr noundef readonly captures(none) %0, ptr noundef %1) unnamed_addr #0 {
  %3 = alloca ptr, align 8
  br label %4

4:                                                ; preds = %6, %2
  %.017.idx = phi i64 [ 0, %2 ], [ %.017.add, %6 ]
  call void @llvm.lifetime.start.p0(i64 8, ptr nonnull %3) #9
  %5 = call i32 @WPACKET_allocate_bytes(ptr noundef %1, i64 noundef 9, ptr noundef nonnull %3) #9
  %.not.not = icmp eq i32 %5, 0
  br i1 %.not.not, label %.thread, label %6

.thread:                                          ; preds = %4
  call void @llvm.lifetime.end.p0(i64 8, ptr nonnull %3) #9
  br label %.loopexit

6:                                                ; preds = %4
  %.017.ptr = getelementptr inbounds nuw i8, ptr %0, i64 %.017.idx
  %7 = getelementptr inbounds nuw i8, ptr %.017.ptr, i64 4
  %8 = load i32, ptr %.017.ptr, align 4, !tbaa !21
  %9 = sub i32 8511489, %8
  %10 = sub i32 131072, %8
  %11 = add i32 %8, -8511490
  %12 = and i32 %10, %11
  %.neg.i.i.i.i = ashr i32 %12, 31
  %13 = call i32 asm "", "=r,0,~{dirflag},~{fpsr},~{flags}"(i32 range(i32 -1, 1) %.neg.i.i.i.i) #10, !srcloc !42
  %14 = and i32 %13, %9
  %15 = xor i32 %.neg.i.i.i.i, -1
  %16 = call i32 asm "", "=r,0,~{dirflag},~{fpsr},~{flags}"(i32 range(i32 -1, 2) %15) #10, !srcloc !42
  %17 = and i32 %16, %10
  %18 = or i32 %17, %14
  %19 = getelementptr inbounds nuw i8, ptr %.017.ptr, i64 8
  %20 = load i32, ptr %7, align 4, !tbaa !21
  %21 = sub i32 8511489, %20
  %22 = sub i32 131072, %20
  %23 = add i32 %20, -8511490
  %24 = and i32 %22, %23
  %.neg.i.i.i.i19 = ashr i32 %24, 31
  %25 = call i32 asm "", "=r,0,~{dirflag},~{fpsr},~{flags}"(i32 range(i32 -1, 1) %.neg.i.i.i.i19) #10, !srcloc !42
  %26 = and i32 %25, %21
  %27 = xor i32 %.neg.i.i.i.i19, -1
  %28 = call i32 asm "", "=r,0,~{dirflag},~{fpsr},~{flags}"(i32 range(i32 -1, 2) %27) #10, !srcloc !42
  %29 = and i32 %28, %22
  %30 = or i32 %29, %26
  %31 = shl i32 %30, 18
  %32 = or i32 %18, %31
  %33 = lshr i32 %30, 14
  %34 = getelementptr inbounds nuw i8, ptr %.017.ptr, i64 12
  %35 = load i32, ptr %19, align 4, !tbaa !21
  %36 = sub i32 8511489, %35
  %37 = sub i32 131072, %35
  %38 = add i32 %35, -8511490
  %39 = and i32 %37, %38
  %.neg.i.i.i.i20 = ashr i32 %39, 31
  %40 = call i32 asm "", "=r,0,~{dirflag},~{fpsr},~{flags}"(i32 range(i32 -1, 1) %.neg.i.i.i.i20) #10, !srcloc !42
  %41 = and i32 %40, %36
  %42 = xor i32 %.neg.i.i.i.i20, -1
  %43 = call i32 asm "", "=r,0,~{dirflag},~{fpsr},~{flags}"(i32 range(i32 -1, 2) %42) #10, !srcloc !42
  %44 = and i32 %43, %37
  %45 = or i32 %44, %41
  %46 = shl i32 %45, 4
  %47 = or i32 %46, %33
  %.017.add = add nuw nsw i64 %.017.idx, 16
  %48 = load i32, ptr %34, align 4, !tbaa !21
  %49 = sub i32 8511489, %48
  %50 = sub i32 131072, %48
  %51 = add i32 %48, -8511490
  %52 = and i32 %50, %51
  %.neg.i.i.i.i21 = ashr i32 %52, 31
  %53 = call i32 asm "", "=r,0,~{dirflag},~{fpsr},~{flags}"(i32 range(i32 -1, 1) %.neg.i.i.i.i21) #10, !srcloc !42
  %54 = and i32 %53, %49
  %55 = xor i32 %.neg.i.i.i.i21, -1
  %56 = call i32 asm "", "=r,0,~{dirflag},~{fpsr},~{flags}"(i32 range(i32 -1, 2) %55) #10, !srcloc !42
  %57 = and i32 %56, %50
  %58 = or i32 %57, %54
  %59 = shl i32 %58, 22
  %60 = or i32 %47, %59
  %61 = load ptr, ptr %3, align 8, !tbaa !22
  store i32 %32, ptr %61, align 1
  %62 = getelementptr inbounds nuw i8, ptr %61, i64 4
  store i32 %60, ptr %62, align 1
  %63 = getelementptr inbounds nuw i8, ptr %61, i64 8
  %64 = lshr i32 %58, 10
  %65 = trunc i32 %64 to i8
  store i8 %65, ptr %63, align 1, !tbaa !23
  call void @llvm.lifetime.end.p0(i64 8, ptr nonnull %3) #9
  %66 = icmp samesign ult i64 %.017.idx, 1008
  br i1 %66, label %4, label %.loopexit, !llvm.loop !73

.loopexit:                                        ; preds = %6, %.thread
  %.2 = phi i32 [ 0, %.thread ], [ 1, %6 ]
  ret i32 %.2
}